target datalayout = "e-m:e-p270:32:32-p271:32:32-p272:64:64-i64:64-i128:128-f80:128-n8:16:32:64-S128"
target triple = "x86_64-pc-linux-gnu"

%struct.MvcCoverStruct = type { i32, i32, i32, %struct.MvcListStruct, ptr, i32, ptr, ptr, ptr }
%struct.MvcListStruct = type { ptr, ptr, i32 }
%struct.MvcCubeStruct = type { ptr, i32, i32, [1 x i32] }

; Function Attrs: nounwind uwtable
define i32 @Mvc_CoverIsOneLiteral(ptr noundef %0) #0 {
  %2 = alloca i32, align 4
  %3 = alloca ptr, align 8
  %4 = alloca ptr, align 8
  %5 = alloca i32, align 4
  %6 = alloca i32, align 4
  %7 = alloca i32, align 4
  store ptr %0, ptr %3, align 8
  %8 = load ptr, ptr %3, align 8
  %9 = call i32 @Mvc_CoverReadCubeNum(ptr noundef %8)
  %10 = icmp ne i32 %9, 1
  br i1 %10, label %11, label %12

11:                                               ; preds = %1
  store i32 0, ptr %2, align 4
  br label %51

12:                                               ; preds = %1
  %13 = load ptr, ptr %3, align 8
  %14 = call ptr @Mvc_CoverReadCubeHead(ptr noundef %13)
  store ptr %14, ptr %4, align 8
  store i32 0, ptr %6, align 4
  store i32 0, ptr %5, align 4
  br label %15

15:                                               ; preds = %47, %12
  %16 = load i32, ptr %5, align 4
  %17 = load ptr, ptr %3, align 8
  %18 = getelementptr inbounds %struct.MvcCoverStruct, ptr %17, i32 0, i32 2
  %19 = load i32, ptr %18, align 8
  %20 = icmp slt i32 %16, %19
  br i1 %20, label %21, label %35

21:                                               ; preds = %15
  %22 = load ptr, ptr %4, align 8
  %23 = getelementptr inbounds %struct.MvcCubeStruct, ptr %22, i32 0, i32 3
  %24 = load i32, ptr %5, align 4
  %25 = ashr i32 %24, 5
  %26 = sext i32 %25 to i64
  %27 = getelementptr inbounds [1 x i32], ptr %23, i64 0, i64 %26
  %28 = load i32, ptr %27, align 4
  %29 = load i32, ptr %5, align 4
  %30 = and i32 %29, 31
  %31 = shl i32 1, %30
  %32 = and i32 %28, %31
  %33 = icmp ugt i32 %32, 0
  %34 = zext i1 %33 to i32
  store i32 %34, ptr %7, align 4
  br label %35

35:                                               ; preds = %21, %15
  %36 = phi i1 [ false, %15 ], [ true, %21 ]
  br i1 %36, label %37, label %50

37:                                               ; preds = %35
  %38 = load i32, ptr %7, align 4
  %39 = icmp ne i32 %38, 0
  br i1 %39, label %40, label %46

40:                                               ; preds = %37
  %41 = load i32, ptr %6, align 4
  %42 = add nsw i32 %41, 1
  store i32 %42, ptr %6, align 4
  %43 = icmp ne i32 %41, 0
  br i1 %43, label %44, label %45

44:                                               ; preds = %40
  store i32 0, ptr %2, align 4
  br label %51

45:                                               ; preds = %40
  br label %46

46:                                               ; preds = %45, %37
  br label %47

47:                                               ; preds = %46
  %48 = load i32, ptr %5, align 4
  %49 = add nsw i32 %48, 1
  store i32 %49, ptr %5, align 4
  br label %15, !llvm.loop !17

50:                                               ; preds = %35
  store i32 1, ptr %2, align 4
  br label %51

51:                                               ; preds = %50, %44, %11
  %52 = load i32, ptr %2, align 4
  ret i32 %52
}