; Function Attrs: nounwind uwtable
define range(i32 0, 2) i32 @Mvc_CoverIsOneLiteral(ptr noundef %0) local_unnamed_addr #1 {
  %2 = tail call i32 @Mvc_CoverReadCubeNum(ptr noundef %0) #5
  %.not = icmp eq i32 %2, 1
  br i1 %.not, label %3, label %.critedge

3:                                                ; preds = %1
  %4 = tail call ptr @Mvc_CoverReadCubeHead(ptr noundef %0) #5
  %5 = getelementptr inbounds nuw i8, ptr %0, i64 8
  %6 = load i32, ptr %5, align 8
  %7 = icmp sgt i32 %6, 0
  br i1 %7, label %.lr.ph, label %.critedge

.lr.ph:                                           ; preds = %3
  %8 = getelementptr inbounds nuw i8, ptr %4, i64 16
  br label %9

9:                                                ; preds = %.lr.ph, %18
  %.01015 = phi i32 [ 0, %.lr.ph ], [ %.1, %18 ]
  %.01114 = phi i32 [ 0, %.lr.ph ], [ %19, %18 ]
  %10 = lshr i32 %.01114, 5
  %11 = zext nneg i32 %10 to i64
  %12 = getelementptr inbounds nuw [1 x i32], ptr %8, i64 0, i64 %11
  %13 = load i32, ptr %12, align 4
  %14 = and i32 %.01114, 31
  %15 = shl nuw i32 1, %14
  %16 = and i32 %13, %15
  %.not12 = icmp eq i32 %16, 0
  br i1 %.not12, label %18, label %17

17:                                               ; preds = %9
  %.not13 = icmp eq i32 %.01015, 0
  br i1 %.not13, label %18, label %.critedge

18:                                               ; preds = %9, %17
  %.1 = phi i32 [ 1, %17 ], [ %.01015, %9 ]
  %19 = add nuw nsw i32 %.01114, 1
  %exitcond.not = icmp eq i32 %19, %6
  br i1 %exitcond.not, label %.critedge, label %9, !llvm.loop !14

.critedge:                                        ; preds = %17, %18, %3, %1
  %.0 = phi i32 [ 0, %1 ], [ 1, %3 ], [ 0, %17 ], [ 1, %18 ]
  ret i32 %.0
}